target datalayout = "e-m:e-p270:32:32-p271:32:32-p272:64:64-i64:64-i128:128-f80:128-n8:16:32:64-S128"
target triple = "x86_64-pc-linux-gnu"

%union.pthread_mutex_t = type { %struct.__pthread_mutex_s }
%struct.__pthread_mutex_s = type { i32, i32, i32, i32, i32, i16, i16, %struct.__pthread_internal_list }
%struct.__pthread_internal_list = type { ptr, ptr }
%union.pthread_cond_t = type { %struct.__pthread_cond_s }
%struct.__pthread_cond_s = type { %union.__atomic_wide_counter, %union.__atomic_wide_counter, [2 x i32], [2 x i32], i32, i32, [2 x i32] }
%union.__atomic_wide_counter = type { i64 }
%struct.timespec = type { i64, i64 }
%struct.timeval = type { i64, i64 }
%struct.tm = type { i32, i32, i32, i32, i32, i32, i32, i32, i32, i64, ptr }

@shutdown_time = dso_local global i64 0, align 8
@.str.22 = private unnamed_addr constant [29 x i8] c"%s: pthread_mutex_lock(): %m\00", align 1
@.str.23 = private unnamed_addr constant [31 x i8] c"%s: pthread_mutex_unlock(): %m\00", align 1
@rollup_lock = internal global %union.pthread_mutex_t zeroinitializer, align 8
@rollup_handler_cond = internal global %union.pthread_cond_t zeroinitializer, align 8
@.str.29 = private unnamed_addr constant [11 x i8] c"slurmdbd.c\00", align 1
@.str.77 = private unnamed_addr constant [46 x i8] c"Couldn't get localtime for rollup handler %ld\00", align 1
@__func__._rollup_handler = private unnamed_addr constant [16 x i8] c"_rollup_handler\00", align 1
@.str.78 = private unnamed_addr constant [15 x i8] c"running rollup\00", align 1
@.str.79 = private unnamed_addr constant [39 x i8] c"%s:%d %s: pthread_cond_timedwait(): %m\00", align 1

; Function Attrs: nounwind uwtable
define internal ptr @_rollup_handler(ptr noundef %0) #0 {
  %2 = alloca ptr, align 8
  %3 = alloca %struct.timespec, align 8
  %4 = alloca %struct.timeval, align 8
  %5 = alloca %struct.tm, align 8
  %6 = alloca ptr, align 8
  %7 = alloca %struct.timeval, align 8
  %8 = alloca %struct.timeval, align 8
  %9 = alloca [20 x i8], align 16
  %10 = alloca i64, align 8
  %11 = alloca i32, align 4
  %12 = alloca i32, align 4
  %13 = alloca i32, align 4
  store ptr %0, ptr %2, align 8
  call void @llvm.lifetime.start.p0(i64 16, ptr %3) #10
  call void @llvm.memset.p0.i64(ptr align 8 %3, i8 0, i64 16, i1 false)
  call void @llvm.lifetime.start.p0(i64 16, ptr %4) #10
  call void @llvm.memset.p0.i64(ptr align 8 %4, i8 0, i64 16, i1 false)
  call void @llvm.lifetime.start.p0(i64 56, ptr %5) #10
  call void @llvm.lifetime.start.p0(i64 8, ptr %6) #10
  store ptr null, ptr %6, align 8
  call void @llvm.lifetime.start.p0(i64 16, ptr %7) #10
  call void @llvm.lifetime.start.p0(i64 16, ptr %8) #10
  call void @llvm.lifetime.start.p0(i64 20, ptr %9) #10
  call void @llvm.memset.p0.i64(ptr align 16 %9, i8 0, i64 20, i1 false)
  call void @llvm.lifetime.start.p0(i64 8, ptr %10) #10
  %14 = call i32 @pthread_setcancelstate(i32 noundef 0, ptr noundef null)
  %15 = call i32 @pthread_setcanceltype(i32 noundef 1, ptr noundef null)
  br label %16

16:                                               ; preds = %113, %1
  %17 = load i64, ptr @shutdown_time, align 8
  %18 = icmp ne i64 %17, 0
  %19 = xor i1 %18, true
  br i1 %19, label %20, label %114

20:                                               ; preds = %16
  %21 = load ptr, ptr %2, align 8
  %22 = icmp ne ptr %21, null
  br i1 %22, label %24, label %23

23:                                               ; preds = %20
  br label %114

24:                                               ; preds = %20
  %25 = getelementptr inbounds nuw %struct.timeval, ptr %4, i32 0, i32 0
  %26 = load i64, ptr %25, align 8
  %27 = icmp ne i64 %26, 0
  br i1 %27, label %28, label %30

28:                                               ; preds = %24
  %29 = call i32 @assoc_mgr_set_missing_uids()
  br label %30

30:                                               ; preds = %28, %24
  %31 = call i32 @gettimeofday(ptr noundef %4, ptr noundef null) #10
  %32 = getelementptr inbounds nuw %struct.timeval, ptr %4, i32 0, i32 0
  %33 = call ptr @localtime_r(ptr noundef %32, ptr noundef %5) #10
  %34 = icmp ne ptr %33, null
  br i1 %34, label %38, label %35

35:                                               ; preds = %30
  %36 = getelementptr inbounds nuw %struct.timeval, ptr %4, i32 0, i32 0
  %37 = load i64, ptr %36, align 8
  call void (ptr, ...) @fatal(ptr noundef @.str.77, i64 noundef %37) #12
  unreachable

38:                                               ; preds = %30
  br label %39

39:                                               ; preds = %38
  call void @llvm.lifetime.start.p0(i64 4, ptr %11) #10
  %40 = call i32 @pthread_mutex_lock(ptr noundef @rollup_lock) #10
  store i32 %40, ptr %11, align 4
  %41 = load i32, ptr %11, align 4
  %42 = icmp ne i32 %41, 0
  br i1 %42, label %43, label %46

43:                                               ; preds = %39
  %44 = load i32, ptr %11, align 4
  %45 = call ptr @__errno_location() #13
  store i32 %44, ptr %45, align 4
  call void (ptr, ...) @fatal_abort(ptr noundef @.str.22, ptr noundef @__func__._rollup_handler) #12
  unreachable

46:                                               ; preds = %39
  call void @llvm.lifetime.end.p0(i64 4, ptr %11) #10
  br label %47

47:                                               ; preds = %46
  br label %48

48:                                               ; preds = %47
  br label %49

49:                                               ; preds = %48
  br label %50

50:                                               ; preds = %49
  %51 = call i32 @get_log_level()
  %52 = icmp sge i32 %51, 6
  br i1 %52, label %53, label %54

53:                                               ; preds = %50
  call void (i32, ptr, ...) @log_var(i32 noundef 6, ptr noundef @.str.78)
  br label %54

54:                                               ; preds = %53, %50
  br label %55

55:                                               ; preds = %54
  br label %56

56:                                               ; preds = %55
  br label %57

57:                                               ; preds = %56
  br label %58

58:                                               ; preds = %57
  %59 = call i32 @gettimeofday(ptr noundef %7, ptr noundef null) #10
  %60 = load ptr, ptr %2, align 8
  %61 = call i32 @acct_storage_g_roll_usage(ptr noundef %60, i64 noundef 0, i64 noundef 0, i16 noundef zeroext 1, ptr noundef %6)
  br label %62

62:                                               ; preds = %58
  %63 = call i32 @gettimeofday(ptr noundef %8, ptr noundef null) #10
  %64 = getelementptr inbounds [20 x i8], ptr %9, i64 0, i64 0
  call void @slurm_diff_tv_str(ptr noundef %7, ptr noundef %8, ptr noundef %64, i32 noundef 20, ptr noundef null, i64 noundef 0, ptr noundef %10)
  br label %65

65:                                               ; preds = %62
  br label %66

66:                                               ; preds = %65
  %67 = load ptr, ptr %2, align 8
  %68 = call i32 @acct_storage_g_commit(ptr noundef %67, i1 noundef zeroext true)
  %69 = load ptr, ptr %6, align 8
  %70 = load i64, ptr %10, align 8
  call void @handle_rollup_stats(ptr noundef %69, i64 noundef %70, i32 noundef 0)
  br label %71

71:                                               ; preds = %66
  %72 = load ptr, ptr %6, align 8
  %73 = icmp ne ptr %72, null
  br i1 %73, label %74, label %76

74:                                               ; preds = %71
  %75 = load ptr, ptr %6, align 8
  call void @list_destroy(ptr noundef %75)
  br label %76

76:                                               ; preds = %74, %71
  store ptr null, ptr %6, align 8
  br label %77

77:                                               ; preds = %76
  br label %78

78:                                               ; preds = %77
  %79 = load i64, ptr @shutdown_time, align 8
  %80 = icmp ne i64 %79, 0
  br i1 %80, label %103, label %81

81:                                               ; preds = %78
  %82 = getelementptr inbounds nuw %struct.tm, ptr %5, i32 0, i32 0
  store i32 0, ptr %82, align 8
  %83 = getelementptr inbounds nuw %struct.tm, ptr %5, i32 0, i32 1
  store i32 0, ptr %83, align 4
  %84 = getelementptr inbounds nuw %struct.tm, ptr %5, i32 0, i32 2
  %85 = load i32, ptr %84, align 8
  %86 = add nsw i32 %85, 1
  store i32 %86, ptr %84, align 8
  %87 = call i64 @slurm_mktime(ptr noundef %5)
  %88 = getelementptr inbounds nuw %struct.timespec, ptr %3, i32 0, i32 0
  store i64 %87, ptr %88, align 8
  br label %89

89:                                               ; preds = %81
  call void @llvm.lifetime.start.p0(i64 4, ptr %12) #10
  %90 = call i32 @pthread_cond_timedwait(ptr noundef @rollup_handler_cond, ptr noundef @rollup_lock, ptr noundef %3)
  store i32 %90, ptr %12, align 4
  %91 = load i32, ptr %12, align 4
  %92 = icmp ne i32 %91, 0
  br i1 %92, label %93, label %100

93:                                               ; preds = %89
  %94 = load i32, ptr %12, align 4
  %95 = icmp ne i32 %94, 110
  br i1 %95, label %96, label %100

96:                                               ; preds = %93
  %97 = load i32, ptr %12, align 4
  %98 = call ptr @__errno_location() #13
  store i32 %97, ptr %98, align 4
  %99 = call i32 (ptr, ...) @error(ptr noundef @.str.79, ptr noundef @.str.29, i32 noundef 883, ptr noundef @__func__._rollup_handler)
  br label %100

100:                                              ; preds = %96, %93, %89
  call void @llvm.lifetime.end.p0(i64 4, ptr %12) #10
  br label %101

101:                                              ; preds = %100
  br label %102

102:                                              ; preds = %101
  br label %103

103:                                              ; preds = %102, %78
  br label %104

104:                                              ; preds = %103
  call void @llvm.lifetime.start.p0(i64 4, ptr %13) #10
  %105 = call i32 @pthread_mutex_unlock(ptr noundef @rollup_lock) #10
  store i32 %105, ptr %13, align 4
  %106 = load i32, ptr %13, align 4
  %107 = icmp ne i32 %106, 0
  br i1 %107, label %108, label %111

108:                                              ; preds = %104
  %109 = load i32, ptr %13, align 4
  %110 = call ptr @__errno_location() #13
  store i32 %109, ptr %110, align 4
  call void (ptr, ...) @fatal_abort(ptr noundef @.str.23, ptr noundef @__func__._rollup_handler) #12
  unreachable

111:                                              ; preds = %104
  call void @llvm.lifetime.end.p0(i64 4, ptr %13) #10
  br label %112

112:                                              ; preds = %111
  br label %113

113:                                              ; preds = %112
  br label %16, !llvm.loop !16

114:                                              ; preds = %23, %16
  call void @llvm.lifetime.end.p0(i64 8, ptr %10) #10
  call void @llvm.lifetime.end.p0(i64 20, ptr %9) #10
  call void @llvm.lifetime.end.p0(i64 16, ptr %8) #10
  call void @llvm.lifetime.end.p0(i64 16, ptr %7) #10
  call void @llvm.lifetime.end.p0(i64 8, ptr %6) #10
  call void @llvm.lifetime.end.p0(i64 56, ptr %5) #10
  call void @llvm.lifetime.end.p0(i64 16, ptr %4) #10
  call void @llvm.lifetime.end.p0(i64 16, ptr %3) #10
  ret ptr null
}