; Function Attrs: nounwind uwtable
define internal noalias noundef ptr @_rollup_handler(ptr noundef %0) #0 {
  %2 = alloca %struct.timespec, align 8
  %3 = alloca %struct.timeval, align 8
  %4 = alloca %struct.tm, align 8
  %5 = alloca ptr, align 8
  %6 = alloca %struct.timeval, align 8
  %7 = alloca %struct.timeval, align 8
  %8 = alloca [20 x i8], align 16
  %9 = alloca i64, align 8
  call void @llvm.lifetime.start.p0(i64 16, ptr nonnull %2) #14
  call void @llvm.memset.p0.i64(ptr noundef nonnull align 8 dereferenceable(16) %2, i8 0, i64 16, i1 false)
  call void @llvm.lifetime.start.p0(i64 16, ptr nonnull %3) #14
  call void @llvm.memset.p0.i64(ptr noundef nonnull align 8 dereferenceable(16) %3, i8 0, i64 16, i1 false)
  call void @llvm.lifetime.start.p0(i64 56, ptr nonnull %4) #14
  call void @llvm.lifetime.start.p0(i64 8, ptr nonnull %5) #14
  store ptr null, ptr %5, align 8
  call void @llvm.lifetime.start.p0(i64 16, ptr nonnull %6) #14
  call void @llvm.lifetime.start.p0(i64 16, ptr nonnull %7) #14
  call void @llvm.lifetime.start.p0(i64 20, ptr nonnull %8) #14
  call void @llvm.memset.p0.i64(ptr noundef nonnull align 16 dereferenceable(20) %8, i8 0, i64 20, i1 false)
  call void @llvm.lifetime.start.p0(i64 8, ptr nonnull %9) #14
  %10 = tail call i32 @pthread_setcancelstate(i32 noundef 0, ptr noundef null) #14
  %11 = tail call i32 @pthread_setcanceltype(i32 noundef 1, ptr noundef null) #14
  %12 = icmp ne ptr %0, null
  %13 = getelementptr inbounds nuw i8, ptr %4, i64 4
  %14 = getelementptr inbounds nuw i8, ptr %4, i64 8
  %15 = load i64, ptr @shutdown_time, align 8
  %.not = icmp eq i64 %15, 0
  %or.cond = select i1 %12, i1 %.not, i1 false
  br i1 %or.cond, label %.preheader, label %.split24

.split:                                           ; preds = %51
  %.old = load i64, ptr @shutdown_time, align 8
  %.not.old = icmp eq i64 %.old, 0
  br i1 %.not.old, label %.preheader, label %.split24

.preheader:                                       ; preds = %1, %.split
  %16 = load i64, ptr %3, align 8
  %.not16 = icmp eq i64 %16, 0
  br i1 %.not16, label %19, label %17

17:                                               ; preds = %.preheader
  %18 = call i32 @assoc_mgr_set_missing_uids() #14
  br label %19

19:                                               ; preds = %17, %.preheader
  %20 = call i32 @gettimeofday(ptr noundef nonnull %3, ptr noundef null) #14
  %21 = call ptr @localtime_r(ptr noundef nonnull %3, ptr noundef nonnull %4) #14
  %.not17 = icmp eq ptr %21, null
  br i1 %.not17, label %22, label %24

22:                                               ; preds = %19
  %23 = load i64, ptr %3, align 8
  call void (ptr, ...) @fatal(ptr noundef nonnull @.str.77, i64 noundef %23) #16
  unreachable

24:                                               ; preds = %19
  %25 = call i32 @pthread_mutex_lock(ptr noundef nonnull @rollup_lock) #14
  %.not18 = icmp eq i32 %25, 0
  br i1 %.not18, label %28, label %26

26:                                               ; preds = %24
  %27 = tail call ptr @__errno_location() #18
  store i32 %25, ptr %27, align 4
  call void (ptr, ...) @fatal_abort(ptr noundef nonnull @.str.22, ptr noundef nonnull @__func__._rollup_handler) #16
  unreachable

28:                                               ; preds = %24
  %29 = call i32 @get_log_level() #14
  %30 = icmp sgt i32 %29, 5
  br i1 %30, label %31, label %32

31:                                               ; preds = %28
  call void (i32, ptr, ...) @log_var(i32 noundef 6, ptr noundef nonnull @.str.78) #14
  br label %32

32:                                               ; preds = %31, %28
  %33 = call i32 @gettimeofday(ptr noundef nonnull %6, ptr noundef null) #14
  %34 = call i32 @acct_storage_g_roll_usage(ptr noundef nonnull %0, i64 noundef 0, i64 noundef 0, i16 noundef zeroext 1, ptr noundef nonnull %5) #14
  %35 = call i32 @gettimeofday(ptr noundef nonnull %7, ptr noundef null) #14
  call void @slurm_diff_tv_str(ptr noundef nonnull %6, ptr noundef nonnull %7, ptr noundef nonnull %8, i32 noundef 20, ptr noundef null, i64 noundef 0, ptr noundef nonnull %9) #14
  %36 = call i32 @acct_storage_g_commit(ptr noundef nonnull %0, i1 noundef zeroext true) #14
  %37 = load ptr, ptr %5, align 8
  %38 = load i64, ptr %9, align 8
  call void @handle_rollup_stats(ptr noundef %37, i64 noundef %38, i32 noundef 0)
  %39 = load ptr, ptr %5, align 8
  %.not19 = icmp eq ptr %39, null
  br i1 %.not19, label %41, label %40

40:                                               ; preds = %32
  call void @list_destroy(ptr noundef nonnull %39) #14
  br label %41

41:                                               ; preds = %40, %32
  store ptr null, ptr %5, align 8
  %42 = load i64, ptr @shutdown_time, align 8
  %.not20 = icmp eq i64 %42, 0
  br i1 %.not20, label %43, label %51

43:                                               ; preds = %41
  store i32 0, ptr %4, align 8
  store i32 0, ptr %13, align 4
  %44 = load i32, ptr %14, align 8
  %45 = add nsw i32 %44, 1
  store i32 %45, ptr %14, align 8
  %46 = call i64 @slurm_mktime(ptr noundef nonnull %4) #14
  store i64 %46, ptr %2, align 8
  %47 = call i32 @pthread_cond_timedwait(ptr noundef nonnull @rollup_handler_cond, ptr noundef nonnull @rollup_lock, ptr noundef nonnull %2) #14
  switch i32 %47, label %48 [
    i32 110, label %51
    i32 0, label %51
  ]

48:                                               ; preds = %43
  %49 = tail call ptr @__errno_location() #18
  store i32 %47, ptr %49, align 4
  %50 = call i32 (ptr, ...) @error(ptr noundef nonnull @.str.79, ptr noundef nonnull @.str.29, i32 noundef 883, ptr noundef nonnull @__func__._rollup_handler) #14
  br label %51

51:                                               ; preds = %48, %43, %43, %41
  %52 = call i32 @pthread_mutex_unlock(ptr noundef nonnull @rollup_lock) #14
  %.not21 = icmp eq i32 %52, 0
  br i1 %.not21, label %.split, label %53, !llvm.loop !17

53:                                               ; preds = %51
  %54 = tail call ptr @__errno_location() #18
  store i32 %52, ptr %54, align 4
  call void (ptr, ...) @fatal_abort(ptr noundef nonnull @.str.23, ptr noundef nonnull @__func__._rollup_handler) #16
  unreachable

.split24:                                         ; preds = %.split, %1
  call void @llvm.lifetime.end.p0(i64 8, ptr nonnull %9) #14
  call void @llvm.lifetime.end.p0(i64 20, ptr nonnull %8) #14
  call void @llvm.lifetime.end.p0(i64 16, ptr nonnull %7) #14
  call void @llvm.lifetime.end.p0(i64 16, ptr nonnull %6) #14
  call void @llvm.lifetime.end.p0(i64 8, ptr nonnull %5) #14
  call void @llvm.lifetime.end.p0(i64 56, ptr nonnull %4) #14
  call void @llvm.lifetime.end.p0(i64 16, ptr nonnull %3) #14
  call void @llvm.lifetime.end.p0(i64 16, ptr nonnull %2) #14
  ret ptr null
}